target datalayout = "e-m:e-p270:32:32-p271:32:32-p272:64:64-i64:64-i128:128-f80:128-n8:16:32:64-S128"
target triple = "x86_64-pc-linux-gnu"

%"class.datalog::sieve_relation" = type { %"class.datalog::relation_base.base", %class.svector, %class.svector.1, %class.svector.1, %class.svector.1, %"class.datalog::scoped_rel" }
%"class.datalog::relation_base.base" = type { %"class.datalog::tr_infrastructure<datalog::relation_traits>::base_ancestor.base" }
%"class.datalog::tr_infrastructure<datalog::relation_traits>::base_ancestor.base" = type <{ ptr, ptr, %"class.datalog::relation_signature", i32 }>
%"class.datalog::relation_signature" = type { %"class.datalog::tr_infrastructure<datalog::relation_traits>::signature_base" }
%"class.datalog::tr_infrastructure<datalog::relation_traits>::signature_base" = type { %class.ptr_vector }
%class.ptr_vector = type { %class.vector }
%class.vector = type { ptr }
%class.svector = type { %class.vector.0 }
%class.vector.0 = type { ptr }
%class.svector.1 = type { %class.vector.2 }
%class.vector.2 = type { ptr }
%"class.datalog::scoped_rel" = type { ptr }
%"class.datalog::tr_infrastructure<datalog::relation_traits>::base_ancestor" = type <{ ptr, ptr, %"class.datalog::relation_signature", i32, [4 x i8] }>
%"class.datalog::tr_infrastructure<datalog::relation_traits>::plugin_object" = type { ptr, i32, %class.symbol, ptr }
%class.symbol = type { ptr }
%"class.datalog::tr_infrastructure<datalog::relation_traits>::base_fn" = type { ptr }
%"class.datalog::sieve_relation_plugin::filter_fn" = type { %"class.datalog::tr_infrastructure<datalog::relation_traits>::mutator_fn", %class.scoped_ptr.174 }
%"class.datalog::tr_infrastructure<datalog::relation_traits>::mutator_fn" = type { %"class.datalog::tr_infrastructure<datalog::relation_traits>::base_fn" }
%class.scoped_ptr.174 = type { ptr }

; Function Attrs: mustprogress nounwind uwtable
define linkonce_odr hidden void @_ZN7datalog17tr_infrastructureINS_15relation_traitsEE7base_fnC2Ev(ptr noundef nonnull align 8 dereferenceable(8) %0) unnamed_addr #5 comdat align 2 {
  %2 = alloca ptr, align 8
  store ptr %0, ptr %2, align 8, !tbaa !249
  %3 = load ptr, ptr %2, align 8
  store ptr getelementptr inbounds inrange(-16, 16) ({ [4 x ptr] }, ptr @_ZTVN7datalog17tr_infrastructureINS_15relation_traitsEE7base_fnE, i32 0, i32 0, i32 2), ptr %3, align 8, !tbaa !16
  ret void
}

; Function Attrs: mustprogress nounwind uwtable
define linkonce_odr hidden void @_ZN7datalog17tr_infrastructureINS_15relation_traitsEE7base_fnD2Ev(ptr noundef nonnull align 8 dereferenceable(8) %0) unnamed_addr #5 comdat align 2 {
  %2 = alloca ptr, align 8
  store ptr %0, ptr %2, align 8, !tbaa !249
  ret void
}

; Function Attrs: mustprogress nounwind uwtable
define linkonce_odr hidden void @_ZN10scoped_ptrIN7datalog17tr_infrastructureINS0_15relation_traitsEE10mutator_fnEEC2EPS4_(ptr noundef nonnull align 8 dereferenceable(8) %0, ptr noundef %1) unnamed_addr #5 comdat align 2 {
  %3 = alloca ptr, align 8
  %4 = alloca ptr, align 8
  store ptr %0, ptr %3, align 8, !tbaa !267
  store ptr %1, ptr %4, align 8, !tbaa !143
  %5 = load ptr, ptr %3, align 8
  %6 = getelementptr inbounds nuw %class.scoped_ptr.174, ptr %5, i32 0, i32 0
  %7 = load ptr, ptr %4, align 8, !tbaa !143
  store ptr %7, ptr %6, align 8, !tbaa !269
  ret void
}

; Function Attrs: mustprogress nounwind uwtable
define linkonce_odr hidden noundef nonnull align 8 dereferenceable(28) ptr @_ZNK7datalog10scoped_relINS_13relation_baseEEdeEv(ptr noundef nonnull align 8 dereferenceable(8) %0) #5 comdat align 2 {
  %2 = alloca ptr, align 8
  store ptr %0, ptr %2, align 8, !tbaa !38
  %3 = load ptr, ptr %2, align 8
  %4 = getelementptr inbounds nuw %"class.datalog::scoped_rel", ptr %3, i32 0, i32 0
  %5 = load ptr, ptr %4, align 8, !tbaa !40
  ret ptr %5
}

; Function Attrs: inlinehint mustprogress nounwind uwtable
define linkonce_odr hidden void @_ZN7datalog17tr_infrastructureINS_15relation_traitsEE10mutator_fnC2Ev(ptr noundef nonnull align 8 dereferenceable(8) %0) unnamed_addr #9 comdat align 2 {
  %2 = alloca ptr, align 8
  store ptr %0, ptr %2, align 8, !tbaa !143
  %3 = load ptr, ptr %2, align 8
  call void @_ZN7datalog17tr_infrastructureINS_15relation_traitsEE7base_fnC2Ev(ptr noundef nonnull align 8 dereferenceable(8) %3) #3
  store ptr getelementptr inbounds inrange(-16, 40) ({ [7 x ptr] }, ptr @_ZTVN7datalog17tr_infrastructureINS_15relation_traitsEE10mutator_fnE, i32 0, i32 0, i32 2), ptr %3, align 8, !tbaa !16
  ret void
}

; Function Attrs: mustprogress nounwind uwtable
define linkonce_odr hidden noundef nonnull align 4 dereferenceable(4) ptr @_ZNK6vectorIjLb0EjEixEj(ptr noundef nonnull align 8 dereferenceable(8) %0, i32 noundef %1) #5 comdat align 2 {
  %3 = alloca ptr, align 8
  %4 = alloca i32, align 4
  store ptr %0, ptr %3, align 8, !tbaa !42
  store i32 %1, ptr %4, align 4, !tbaa !18
  %5 = load ptr, ptr %3, align 8
  %6 = getelementptr inbounds nuw %class.vector.2, ptr %5, i32 0, i32 0
  %7 = load ptr, ptr %6, align 8, !tbaa !44
  %8 = load i32, ptr %4, align 4, !tbaa !18
  %9 = zext i32 %8 to i64
  %10 = getelementptr inbounds nuw i32, ptr %7, i64 %9
  ret ptr %10
}

; Function Attrs: mustprogress uwtable
define linkonce_odr hidden void @_ZN7datalog21sieve_relation_plugin9filter_fnC2EPNS_17tr_infrastructureINS_15relation_traitsEE10mutator_fnE(ptr noundef nonnull align 8 dereferenceable(16) %0, ptr noundef %1) unnamed_addr #4 comdat align 2 personality ptr @__gxx_personality_v0 {
  %3 = alloca ptr, align 8
  %4 = alloca ptr, align 8
  %5 = alloca ptr, align 8
  %6 = alloca i32, align 4
  store ptr %0, ptr %3, align 8, !tbaa !147
  store ptr %1, ptr %4, align 8, !tbaa !143
  %7 = load ptr, ptr %3, align 8
  call void @_ZN7datalog17tr_infrastructureINS_15relation_traitsEE10mutator_fnC2Ev(ptr noundef nonnull align 8 dereferenceable(8) %7) #3
  store ptr getelementptr inbounds inrange(-16, 40) ({ [7 x ptr] }, ptr @_ZTVN7datalog21sieve_relation_plugin9filter_fnE, i32 0, i32 0, i32 2), ptr %7, align 8, !tbaa !16
  %8 = getelementptr inbounds nuw %"class.datalog::sieve_relation_plugin::filter_fn", ptr %7, i32 0, i32 1
  %9 = load ptr, ptr %4, align 8, !tbaa !143
  invoke void @_ZN10scoped_ptrIN7datalog17tr_infrastructureINS0_15relation_traitsEE10mutator_fnEEC2EPS4_(ptr noundef nonnull align 8 dereferenceable(8) %8, ptr noundef %9)
          to label %10 unwind label %11

10:                                               ; preds = %2
  ret void

11:                                               ; preds = %2
  %12 = landingpad { ptr, i32 }
          cleanup
  %13 = extractvalue { ptr, i32 } %12, 0
  store ptr %13, ptr %5, align 8
  %14 = extractvalue { ptr, i32 } %12, 1
  store i32 %14, ptr %6, align 4
  call void @_ZN7datalog17tr_infrastructureINS_15relation_traitsEE7base_fnD2Ev(ptr noundef nonnull align 8 dereferenceable(8) %7) #3
  br label %15

15:                                               ; preds = %11
  %16 = load ptr, ptr %5, align 8
  %17 = load i32, ptr %6, align 4
  %18 = insertvalue { ptr, i32 } poison, ptr %16, 0
  %19 = insertvalue { ptr, i32 } %18, i32 %17, 1
  resume { ptr, i32 } %19
}

; Function Attrs: mustprogress uwtable
define linkonce_odr hidden noundef nonnull align 8 dereferenceable(28) ptr @_ZNK7datalog14sieve_relation9get_innerEv(ptr noundef nonnull align 8 dereferenceable(72) %0) #4 comdat align 2 {
  %2 = alloca ptr, align 8
  store ptr %0, ptr %2, align 8, !tbaa !3
  %3 = load ptr, ptr %2, align 8
  %4 = getelementptr inbounds nuw %"class.datalog::sieve_relation", ptr %3, i32 0, i32 5
  %5 = call noundef nonnull align 8 dereferenceable(28) ptr @_ZNK7datalog10scoped_relINS_13relation_baseEEdeEv(ptr noundef nonnull align 8 dereferenceable(8) %4)
  ret ptr %5
}

; Function Attrs: mustprogress nounwind uwtable
define linkonce_odr hidden noundef nonnull align 8 dereferenceable(200) ptr @_ZNK7datalog17tr_infrastructureINS_15relation_traitsEE13plugin_object11get_managerEv(ptr noundef nonnull align 8 dereferenceable(32) %0) #5 comdat align 2 {
  %2 = alloca ptr, align 8
  store ptr %0, ptr %2, align 8, !tbaa !81
  %3 = load ptr, ptr %2, align 8
  %4 = getelementptr inbounds nuw %"class.datalog::tr_infrastructure<datalog::relation_traits>::plugin_object", ptr %3, i32 0, i32 3
  %5 = load ptr, ptr %4, align 8, !tbaa !83
  ret ptr %5
}

; Function Attrs: mustprogress uwtable
define linkonce_odr hidden noundef i32 @_ZNK7datalog14sieve_relation13get_inner_colEj(ptr noundef nonnull align 8 dereferenceable(72) %0, i32 noundef %1) #4 comdat align 2 {
  %3 = alloca ptr, align 8
  %4 = alloca i32, align 4
  store ptr %0, ptr %3, align 8, !tbaa !3
  store i32 %1, ptr %4, align 4, !tbaa !18
  %5 = load ptr, ptr %3, align 8
  %6 = getelementptr inbounds nuw %"class.datalog::sieve_relation", ptr %5, i32 0, i32 2
  %7 = load i32, ptr %4, align 4, !tbaa !18
  %8 = call noundef nonnull align 4 dereferenceable(4) ptr @_ZNK6vectorIjLb0EjEixEj(ptr noundef nonnull align 8 dereferenceable(8) %6, i32 noundef %7)
  %9 = load i32, ptr %8, align 4, !tbaa !18
  ret i32 %9
}

; Function Attrs: inlinehint mustprogress nounwind uwtable
define linkonce_odr hidden void @_ZN7datalog17tr_infrastructureINS_15relation_traitsEE19identity_mutator_fnC2Ev(ptr noundef nonnull align 8 dereferenceable(8) %0) unnamed_addr #9 comdat align 2 {
  %2 = alloca ptr, align 8
  store ptr %0, ptr %2, align 8, !tbaa !145
  %3 = load ptr, ptr %2, align 8
  call void @_ZN7datalog17tr_infrastructureINS_15relation_traitsEE10mutator_fnC2Ev(ptr noundef nonnull align 8 dereferenceable(8) %3) #3
  store ptr getelementptr inbounds inrange(-16, 40) ({ [7 x ptr] }, ptr @_ZTVN7datalog17tr_infrastructureINS_15relation_traitsEE19identity_mutator_fnE, i32 0, i32 0, i32 2), ptr %3, align 8, !tbaa !16
  ret void
}

; Function Attrs: mustprogress uwtable
define linkonce_odr hidden noundef zeroext i1 @_ZNK7datalog14sieve_relation12is_inner_colEj(ptr noundef nonnull align 8 dereferenceable(72) %0, i32 noundef %1) #4 comdat align 2 {
  %3 = alloca ptr, align 8
  %4 = alloca i32, align 4
  store ptr %0, ptr %3, align 8, !tbaa !3
  store i32 %1, ptr %4, align 4, !tbaa !18
  %5 = load ptr, ptr %3, align 8
  %6 = getelementptr inbounds nuw %"class.datalog::sieve_relation", ptr %5, i32 0, i32 2
  %7 = load i32, ptr %4, align 4, !tbaa !18
  %8 = call noundef nonnull align 4 dereferenceable(4) ptr @_ZNK6vectorIjLb0EjEixEj(ptr noundef nonnull align 8 dereferenceable(8) %6, i32 noundef %7)
  %9 = load i32, ptr %8, align 4, !tbaa !18
  %10 = icmp ne i32 %9, -1
  ret i1 %10
}

; Function Attrs: mustprogress nounwind uwtable
define linkonce_odr hidden noundef nonnull align 8 dereferenceable(36) ptr @_ZNK7datalog17tr_infrastructureINS_15relation_traitsEE13base_ancestor10get_pluginEv(ptr noundef nonnull align 8 dereferenceable(28) %0) #5 comdat align 2 {
  %2 = alloca ptr, align 8
  store ptr %0, ptr %2, align 8, !tbaa !48
  %3 = load ptr, ptr %2, align 8
  %4 = getelementptr inbounds nuw %"class.datalog::tr_infrastructure<datalog::relation_traits>::base_ancestor", ptr %3, i32 0, i32 1
  %5 = load ptr, ptr %4, align 8, !tbaa !124
  ret ptr %5
}

; Function Attrs: mustprogress uwtable
define hidden noundef ptr @_ZN7datalog21sieve_relation_plugin18mk_filter_equal_fnERKNS_13relation_baseERKP3appj(ptr noundef nonnull align 8 dereferenceable(104) %0, ptr noundef nonnull align 8 dereferenceable(28) %1, ptr noundef nonnull align 8 dereferenceable(8) %2, i32 noundef %3) unnamed_addr #4 align 2 {
  %5 = alloca ptr, align 8
  %6 = alloca ptr, align 8
  %7 = alloca ptr, align 8
  %8 = alloca ptr, align 8
  %9 = alloca i32, align 4
  %10 = alloca ptr, align 8
  %11 = alloca i32, align 4
  %12 = alloca i32, align 4
  %13 = alloca ptr, align 8
  store ptr %0, ptr %6, align 8, !tbaa !8
  store ptr %1, ptr %7, align 8, !tbaa !14
  store ptr %2, ptr %8, align 8, !tbaa !149
  store i32 %3, ptr %9, align 4, !tbaa !18
  %14 = load ptr, ptr %6, align 8
  %15 = load ptr, ptr %7, align 8, !tbaa !14
  %16 = call noundef nonnull align 8 dereferenceable(36) ptr @_ZNK7datalog17tr_infrastructureINS_15relation_traitsEE13base_ancestor10get_pluginEv(ptr noundef nonnull align 8 dereferenceable(28) %15)
  %17 = icmp ne ptr %16, %14
  br i1 %17, label %18, label %19

18:                                               ; preds = %4
  store ptr null, ptr %5, align 8
  br label %44

19:                                               ; preds = %4
  call void @llvm.lifetime.start.p0(i64 8, ptr %10) #3
  %20 = load ptr, ptr %7, align 8, !tbaa !14
  store ptr %20, ptr %10, align 8, !tbaa !3
  %21 = load ptr, ptr %10, align 8, !tbaa !3
  %22 = load i32, ptr %9, align 4, !tbaa !18
  %23 = call noundef zeroext i1 @_ZNK7datalog14sieve_relation12is_inner_colEj(ptr noundef nonnull align 8 dereferenceable(72) %21, i32 noundef %22)
  br i1 %23, label %26, label %24

24:                                               ; preds = %19
  %25 = call noalias noundef ptr @_ZN6memory8allocateEm(i64 noundef 8)
  call void @llvm.memset.p0.i64(ptr align 8 %25, i8 0, i64 8, i1 false)
  call void @_ZN7datalog17tr_infrastructureINS_15relation_traitsEE19identity_mutator_fnC2Ev(ptr noundef nonnull align 8 dereferenceable(8) %25) #3
  store ptr %25, ptr %5, align 8
  store i32 1, ptr %11, align 4
  br label %43

26:                                               ; preds = %19
  call void @llvm.lifetime.start.p0(i64 4, ptr %12) #3
  %27 = load ptr, ptr %10, align 8, !tbaa !3
  %28 = load i32, ptr %9, align 4, !tbaa !18
  %29 = call noundef i32 @_ZNK7datalog14sieve_relation13get_inner_colEj(ptr noundef nonnull align 8 dereferenceable(72) %27, i32 noundef %28)
  store i32 %29, ptr %12, align 4, !tbaa !18
  call void @llvm.lifetime.start.p0(i64 8, ptr %13) #3
  %30 = call noundef nonnull align 8 dereferenceable(200) ptr @_ZNK7datalog17tr_infrastructureINS_15relation_traitsEE13plugin_object11get_managerEv(ptr noundef nonnull align 8 dereferenceable(32) %14)
  %31 = load ptr, ptr %10, align 8, !tbaa !3
  %32 = call noundef nonnull align 8 dereferenceable(28) ptr @_ZNK7datalog14sieve_relation9get_innerEv(ptr noundef nonnull align 8 dereferenceable(72) %31)
  %33 = load ptr, ptr %8, align 8, !tbaa !149
  %34 = load i32, ptr %12, align 4, !tbaa !18
  %35 = call noundef ptr @_ZN7datalog16relation_manager18mk_filter_equal_fnERKNS_13relation_baseERKP3appj(ptr noundef nonnull align 8 dereferenceable(200) %30, ptr noundef nonnull align 8 dereferenceable(28) %32, ptr noundef nonnull align 8 dereferenceable(8) %33, i32 noundef %34)
  store ptr %35, ptr %13, align 8, !tbaa !143
  %36 = load ptr, ptr %13, align 8, !tbaa !143
  %37 = icmp ne ptr %36, null
  br i1 %37, label %39, label %38

38:                                               ; preds = %26
  store ptr null, ptr %5, align 8
  store i32 1, ptr %11, align 4
  br label %42

39:                                               ; preds = %26
  %40 = call noalias noundef ptr @_ZN6memory8allocateEm(i64 noundef 16)
  %41 = load ptr, ptr %13, align 8, !tbaa !143
  call void @_ZN7datalog21sieve_relation_plugin9filter_fnC2EPNS_17tr_infrastructureINS_15relation_traitsEE10mutator_fnE(ptr noundef nonnull align 8 dereferenceable(16) %40, ptr noundef %41)
  store ptr %40, ptr %5, align 8
  store i32 1, ptr %11, align 4
  br label %42

42:                                               ; preds = %39, %38
  call void @llvm.lifetime.end.p0(i64 8, ptr %13) #3
  call void @llvm.lifetime.end.p0(i64 4, ptr %12) #3
  br label %43

43:                                               ; preds = %42, %24
  call void @llvm.lifetime.end.p0(i64 8, ptr %10) #3
  br label %44

44:                                               ; preds = %43, %18
  %45 = load ptr, ptr %5, align 8
  ret ptr %45
}