; Function Attrs: mustprogress uwtable
define hidden noalias noundef ptr @_ZN7datalog21sieve_relation_plugin18mk_filter_equal_fnERKNS_13relation_baseERKP3appj(ptr noundef nonnull readonly align 8 captures(address) dereferenceable(104) %0, ptr noundef nonnull readonly align 8 captures(none) dereferenceable(28) %1, ptr noundef nonnull align 8 dereferenceable(8) %2, i32 noundef %3) unnamed_addr #3 align 2 personality ptr @__gxx_personality_v0 {
  %5 = getelementptr inbounds nuw i8, ptr %1, i64 8
  %6 = load ptr, ptr %5, align 8, !tbaa !55
  %.not = icmp eq ptr %6, %0
  br i1 %.not, label %7, label %24

7:                                                ; preds = %4
  %8 = getelementptr inbounds nuw i8, ptr %1, i64 40
  %9 = load ptr, ptr %8, align 8, !tbaa !38
  %10 = zext i32 %3 to i64
  %11 = getelementptr inbounds nuw i32, ptr %9, i64 %10
  %12 = load i32, ptr %11, align 4, !tbaa !14
  %.not15 = icmp eq i32 %12, -1
  br i1 %.not15, label %13, label %15

13:                                               ; preds = %7
  %14 = tail call noalias noundef ptr @_ZN6memory8allocateEm(i64 noundef 8)
  store ptr getelementptr inbounds nuw inrange(-16, 40) (i8, ptr @_ZTVN7datalog17tr_infrastructureINS_15relation_traitsEE19identity_mutator_fnE, i64 16), ptr %14, align 8, !tbaa !3
  br label %24

15:                                               ; preds = %7
  %16 = getelementptr inbounds nuw i8, ptr %0, i64 24
  %17 = load ptr, ptr %16, align 8, !tbaa !66
  %18 = getelementptr inbounds nuw i8, ptr %1, i64 64
  %19 = load ptr, ptr %18, align 8, !tbaa !26
  %20 = tail call noundef ptr @_ZN7datalog16relation_manager18mk_filter_equal_fnERKNS_13relation_baseERKP3appj(ptr noundef nonnull align 8 dereferenceable(200) %17, ptr noundef nonnull align 8 dereferenceable(28) %19, ptr noundef nonnull align 8 dereferenceable(8) %2, i32 noundef %12)
  %.not14 = icmp eq ptr %20, null
  br i1 %.not14, label %24, label %21

21:                                               ; preds = %15
  %22 = tail call noalias noundef ptr @_ZN6memory8allocateEm(i64 noundef 16)
  store ptr getelementptr inbounds nuw inrange(-16, 40) (i8, ptr @_ZTVN7datalog21sieve_relation_plugin9filter_fnE, i64 16), ptr %22, align 8, !tbaa !3
  %23 = getelementptr inbounds nuw i8, ptr %22, i64 8
  store ptr %20, ptr %23, align 8, !tbaa !157
  br label %24

24:                                               ; preds = %13, %15, %21, %4
  %.0 = phi ptr [ null, %4 ], [ %14, %13 ], [ %22, %21 ], [ null, %15 ]
  ret ptr %.0
}